; Function Attrs: mustprogress nounwind uwtable
define internal fastcc void @_ZSt8_DestroyIPN5Yosys7hashlib4dictINS0_5RTLIL8IdStringEN12_GLOBAL__N_17LUTTypeENS1_8hash_opsIS4_EEE7entry_tEEvT_SC_(ptr noundef readonly %0, ptr noundef readnone %1) unnamed_addr #3 personality ptr @__gxx_personality_v0 {
  %.not4.i = icmp eq ptr %0, %1
  br i1 %.not4.i, label %_ZNSt12_Destroy_auxILb0EE9__destroyIPN5Yosys7hashlib4dictINS2_5RTLIL8IdStringEN12_GLOBAL__N_17LUTTypeENS3_8hash_opsIS6_EEE7entry_tEEEvT_SE_.exit, label %.lr.ph.i

.lr.ph.i:                                         ; preds = %2, %_ZSt8_DestroyIN5Yosys7hashlib4dictINS0_5RTLIL8IdStringEN12_GLOBAL__N_17LUTTypeENS1_8hash_opsIS4_EEE7entry_tEEvPT_.exit.i
  %.05.i = phi ptr [ %20, %_ZSt8_DestroyIN5Yosys7hashlib4dictINS0_5RTLIL8IdStringEN12_GLOBAL__N_17LUTTypeENS1_8hash_opsIS4_EEE7entry_tEEvPT_.exit.i ], [ %0, %2 ]
  %3 = getelementptr inbounds i8, ptr %.05.i, i64 8
  tail call fastcc void @_ZN12_GLOBAL__N_17LUTTypeD2Ev(ptr noundef nonnull align 8 dereferenceable(60) %3) #18
  %4 = load i32, ptr %.05.i, align 4
  %5 = load i8, ptr @_ZN5Yosys5RTLIL8IdString17destruct_guard_okE, align 1
  %6 = and i8 %5, 1
  %7 = icmp ne i8 %6, 0
  %8 = icmp ne i32 %4, 0
  %or.cond.i.i.i.i.i.i = and i1 %8, %7
  br i1 %or.cond.i.i.i.i.i.i, label %9, label %_ZSt8_DestroyIN5Yosys7hashlib4dictINS0_5RTLIL8IdStringEN12_GLOBAL__N_17LUTTypeENS1_8hash_opsIS4_EEE7entry_tEEvPT_.exit.i

9:                                                ; preds = %.lr.ph.i
  %10 = sext i32 %4 to i64
  %11 = load ptr, ptr @_ZN5Yosys5RTLIL8IdString24global_refcount_storage_E, align 8
  %12 = getelementptr inbounds i32, ptr %11, i64 %10
  %13 = load i32, ptr %12, align 4
  %14 = add nsw i32 %13, -1
  store i32 %14, ptr %12, align 4
  %15 = icmp sgt i32 %13, 1
  br i1 %15, label %_ZSt8_DestroyIN5Yosys7hashlib4dictINS0_5RTLIL8IdStringEN12_GLOBAL__N_17LUTTypeENS1_8hash_opsIS4_EEE7entry_tEEvPT_.exit.i, label %16

16:                                               ; preds = %9
  invoke void @_ZN5Yosys5RTLIL8IdString14free_referenceEi(i32 noundef %4)
          to label %_ZSt8_DestroyIN5Yosys7hashlib4dictINS0_5RTLIL8IdStringEN12_GLOBAL__N_17LUTTypeENS1_8hash_opsIS4_EEE7entry_tEEvPT_.exit.i unwind label %17

17:                                               ; preds = %16
  %18 = landingpad { ptr, i32 }
          catch ptr null
  %19 = extractvalue { ptr, i32 } %18, 0
  tail call void @__clang_call_terminate(ptr %19) #22
  unreachable

_ZSt8_DestroyIN5Yosys7hashlib4dictINS0_5RTLIL8IdStringEN12_GLOBAL__N_17LUTTypeENS1_8hash_opsIS4_EEE7entry_tEEvPT_.exit.i: ; preds = %16, %9, %.lr.ph.i
  %20 = getelementptr inbounds i8, ptr %.05.i, i64 80
  %.not.i = icmp eq ptr %20, %1
  br i1 %.not.i, label %_ZNSt12_Destroy_auxILb0EE9__destroyIPN5Yosys7hashlib4dictINS2_5RTLIL8IdStringEN12_GLOBAL__N_17LUTTypeENS3_8hash_opsIS6_EEE7entry_tEEEvT_SE_.exit, label %.lr.ph.i, !llvm.loop !99

_ZNSt12_Destroy_auxILb0EE9__destroyIPN5Yosys7hashlib4dictINS2_5RTLIL8IdStringEN12_GLOBAL__N_17LUTTypeENS3_8hash_opsIS6_EEE7entry_tEEEvT_SE_.exit: ; preds = %_ZSt8_DestroyIN5Yosys7hashlib4dictINS0_5RTLIL8IdStringEN12_GLOBAL__N_17LUTTypeENS1_8hash_opsIS4_EEE7entry_tEEvPT_.exit.i, %2
  ret void
}